target datalayout = "e-m:e-p270:32:32-p271:32:32-p272:64:64-i64:64-i128:128-f80:128-n8:16:32:64-S128"
target triple = "x86_64-pc-linux-gnu"

%union.SourceSpan = type { i64 }
%struct.anon = type { i16, i8, i8, i32 }
%struct.File = type { i16, ptr, i64, ptr, ptr, ptr }

@.str.5 = private unnamed_addr constant [36 x i8] c"FATAL ERROR %s -> in %s @ in %s:%d \00", align 1
@.str.6 = private unnamed_addr constant [22 x i8] c"Should be unreachable\00", align 1
@__func__.char_is_whitespace = private unnamed_addr constant [19 x i8] c"char_is_whitespace\00", align 1
@.str.20 = private unnamed_addr constant [113 x i8] c"generated/home/dtcxzyw/WorkSpace/Projects/compilers/llvm-opt-benchmark/bench/c3c/c3c/src/compiler/../utils/lib.h\00", align 1

; Function Attrs: nounwind uwtable
define internal zeroext i1 @char_is_whitespace(i8 noundef signext %0) #0 {
  %2 = alloca i1, align 1
  %3 = alloca i8, align 1
  store i8 %0, ptr %3, align 1
  %4 = load i8, ptr %3, align 1
  %5 = sext i8 %4 to i32
  switch i32 %5, label %10 [
    i32 32, label %6
    i32 9, label %6
    i32 10, label %6
    i32 13, label %7
  ]

6:                                                ; preds = %1, %1, %1
  store i1 true, ptr %2, align 1
  br label %11

7:                                                ; preds = %1
  br label %8

8:                                                ; preds = %7
  call void (ptr, ...) @error_exit(ptr noundef @.str.5, ptr noundef @.str.6, ptr noundef @__func__.char_is_whitespace, ptr noundef @.str.20, i32 noundef 581) #6
  unreachable

9:                                                ; No predecessors!
  br label %10

10:                                               ; preds = %9, %1
  store i1 false, ptr %2, align 1
  br label %11

11:                                               ; preds = %10, %6
  %12 = load i1, ptr %2, align 1
  ret i1 %12
}

; Function Attrs: nounwind uwtable
define dso_local void @span_to_scratch(i64 %0) #0 {
  %2 = alloca %union.SourceSpan, align 8
  %3 = alloca ptr, align 8
  %4 = alloca ptr, align 8
  %5 = alloca i32, align 4
  %6 = alloca i32, align 4
  %7 = alloca i32, align 4
  %8 = alloca i32, align 4
  %9 = alloca ptr, align 8
  %10 = alloca i8, align 1
  %11 = alloca i32, align 4
  %12 = alloca i8, align 1
  %13 = getelementptr inbounds %union.SourceSpan, ptr %2, i32 0, i32 0
  store i64 %0, ptr %13, align 8
  %14 = getelementptr inbounds %struct.anon, ptr %2, i32 0, i32 0
  %15 = load i16, ptr %14, align 8
  %16 = call ptr @source_file_by_id(i16 noundef zeroext %15)
  store ptr %16, ptr %3, align 8
  %17 = load ptr, ptr %3, align 8
  %18 = getelementptr inbounds %struct.File, ptr %17, i32 0, i32 1
  %19 = load ptr, ptr %18, align 8
  store ptr %19, ptr %4, align 8
  store i32 1, ptr %5, align 4
  %20 = getelementptr inbounds %struct.anon, ptr %2, i32 0, i32 3
  %21 = load i32, ptr %20, align 4
  store i32 %21, ptr %6, align 4
  %22 = getelementptr inbounds %struct.anon, ptr %2, i32 0, i32 1
  %23 = load i8, ptr %22, align 2
  %24 = zext i8 %23 to i32
  store i32 %24, ptr %7, align 4
  %25 = getelementptr inbounds %struct.anon, ptr %2, i32 0, i32 2
  %26 = load i8, ptr %25, align 1
  %27 = zext i8 %26 to i32
  store i32 %27, ptr %8, align 4
  %28 = load i32, ptr %6, align 4
  %29 = icmp ne i32 %28, 0
  br i1 %29, label %30, label %36

30:                                               ; preds = %1
  %31 = load i32, ptr %7, align 4
  %32 = icmp ne i32 %31, 0
  br i1 %32, label %33, label %36

33:                                               ; preds = %30
  %34 = load i32, ptr %8, align 4
  %35 = icmp ne i32 %34, 0
  br i1 %35, label %37, label %36

36:                                               ; preds = %33, %30, %1
  br label %82

37:                                               ; preds = %33
  br label %38

38:                                               ; preds = %53, %37
  %39 = load i32, ptr %5, align 4
  %40 = load i32, ptr %6, align 4
  %41 = icmp ult i32 %39, %40
  br i1 %41, label %42, label %54

42:                                               ; preds = %38
  %43 = load ptr, ptr %4, align 8
  %44 = getelementptr inbounds i8, ptr %43, i32 1
  store ptr %44, ptr %4, align 8
  %45 = getelementptr inbounds i8, ptr %43, i64 0
  %46 = load i8, ptr %45, align 1
  %47 = sext i8 %46 to i32
  switch i32 %47, label %52 [
    i32 0, label %48
    i32 10, label %49
  ]

48:                                               ; preds = %42
  br label %82

49:                                               ; preds = %42
  %50 = load i32, ptr %5, align 4
  %51 = add i32 %50, 1
  store i32 %51, ptr %5, align 4
  br label %52

52:                                               ; preds = %49, %42
  br label %53

53:                                               ; preds = %52
  br label %38, !llvm.loop !14

54:                                               ; preds = %38
  %55 = load ptr, ptr %4, align 8
  %56 = load i32, ptr %8, align 4
  %57 = zext i32 %56 to i64
  %58 = getelementptr inbounds i8, ptr %55, i64 %57
  %59 = getelementptr inbounds i8, ptr %58, i64 -1
  store ptr %59, ptr %9, align 8
  store i8 0, ptr %10, align 1
  store i32 0, ptr %11, align 4
  br label %60

60:                                               ; preds = %79, %54
  %61 = load i32, ptr %11, align 4
  %62 = load i32, ptr %7, align 4
  %63 = icmp ult i32 %61, %62
  br i1 %63, label %64, label %82

64:                                               ; preds = %60
  %65 = load ptr, ptr %9, align 8
  %66 = load i32, ptr %11, align 4
  %67 = zext i32 %66 to i64
  %68 = getelementptr inbounds i8, ptr %65, i64 %67
  %69 = load i8, ptr %68, align 1
  store i8 %69, ptr %12, align 1
  %70 = load i8, ptr %12, align 1
  %71 = call zeroext i1 @char_is_whitespace(i8 noundef signext %70)
  br i1 %71, label %72, label %77

72:                                               ; preds = %64
  %73 = load i8, ptr %10, align 1
  %74 = trunc i8 %73 to i1
  br i1 %74, label %76, label %75

75:                                               ; preds = %72
  call void @scratch_buffer_append_char(i8 noundef signext 32)
  br label %76

76:                                               ; preds = %75, %72
  store i8 1, ptr %10, align 1
  br label %79

77:                                               ; preds = %64
  store i8 0, ptr %10, align 1
  %78 = load i8, ptr %12, align 1
  call void @scratch_buffer_append_char(i8 noundef signext %78)
  br label %79

79:                                               ; preds = %77, %76
  %80 = load i32, ptr %11, align 4
  %81 = add i32 %80, 1
  store i32 %81, ptr %11, align 4
  br label %60, !llvm.loop !15

82:                                               ; preds = %60, %48, %36
  ret void
}