; Function Attrs: nounwind uwtable
define dso_local void @span_to_scratch(i64 %0) local_unnamed_addr #0 {
  %.sroa.0.0.extract.trunc = trunc i64 %0 to i16
  %2 = trunc i64 %0 to i32
  %3 = lshr i32 %2, 16
  %4 = lshr i64 %0, 24
  %.sroa.4.0.extract.shift = lshr i64 %0, 32
  %.sroa.4.0.extract.trunc = trunc nuw i64 %.sroa.4.0.extract.shift to i32
  %5 = tail call ptr @source_file_by_id(i16 noundef zeroext %.sroa.0.0.extract.trunc) #8
  %6 = and i32 %3, 255
  %7 = icmp ne i32 %.sroa.4.0.extract.trunc, 0
  %8 = icmp ne i32 %6, 0
  %or.cond = and i1 %7, %8
  %9 = and i64 %0, 4278190080
  %10 = icmp ne i64 %9, 0
  %or.cond3 = and i1 %10, %or.cond
  br i1 %or.cond3, label %.preheader, label %.loopexit

.preheader:                                       ; preds = %1
  %11 = getelementptr inbounds i8, ptr %5, i64 8
  %12 = load ptr, ptr %11, align 8
  %13 = icmp ugt i32 %.sroa.4.0.extract.trunc, 1
  br i1 %13, label %.lr.ph, label %._crit_edge

.lr.ph:                                           ; preds = %.preheader, %18
  %.030 = phi ptr [ %14, %18 ], [ %12, %.preheader ]
  %.02229 = phi i32 [ %.123, %18 ], [ 1, %.preheader ]
  %14 = getelementptr inbounds i8, ptr %.030, i64 1
  %15 = load i8, ptr %.030, align 1
  switch i8 %15, label %18 [
    i8 0, label %.loopexit
    i8 10, label %16
  ]

16:                                               ; preds = %.lr.ph
  %17 = add nuw i32 %.02229, 1
  br label %18

18:                                               ; preds = %.lr.ph, %16
  %.123 = phi i32 [ %.02229, %.lr.ph ], [ %17, %16 ]
  %19 = icmp ult i32 %.123, %.sroa.4.0.extract.trunc
  br i1 %19, label %.lr.ph, label %._crit_edge, !llvm.loop !14

._crit_edge:                                      ; preds = %18, %.preheader
  %.0.lcssa = phi ptr [ %12, %.preheader ], [ %14, %18 ]
  %20 = and i64 %4, 255
  %21 = getelementptr inbounds i8, ptr %.0.lcssa, i64 %20
  %22 = getelementptr inbounds i8, ptr %21, i64 -1
  %umax = tail call i32 @llvm.umax.i32(i32 %6, i32 1)
  %wide.trip.count = zext nneg i32 %umax to i64
  br label %23

23:                                               ; preds = %._crit_edge, %28
  %indvars.iv = phi i64 [ 0, %._crit_edge ], [ %indvars.iv.next, %28 ]
  %.02131 = phi i1 [ false, %._crit_edge ], [ %.0.i25, %28 ]
  %24 = getelementptr inbounds i8, ptr %22, i64 %indvars.iv
  %25 = load i8, ptr %24, align 1
  switch i8 %25, label %.sink.split [
    i8 32, label %27
    i8 9, label %27
    i8 10, label %27
    i8 13, label %26
  ]

26:                                               ; preds = %23
  tail call void (ptr, ...) @error_exit(ptr noundef nonnull @.str.5, ptr noundef nonnull @.str.6, ptr noundef nonnull @__func__.char_is_whitespace, ptr noundef nonnull @.str.20, i32 noundef 581) #9
  unreachable

27:                                               ; preds = %23, %23, %23
  br i1 %.02131, label %28, label %.sink.split

.sink.split:                                      ; preds = %23, %27
  %.sink = phi i8 [ 32, %27 ], [ %25, %23 ]
  %.0.i25.ph = phi i1 [ true, %27 ], [ false, %23 ]
  tail call void @scratch_buffer_append_char(i8 noundef signext %.sink) #8
  br label %28

28:                                               ; preds = %.sink.split, %27
  %.0.i25 = phi i1 [ true, %27 ], [ %.0.i25.ph, %.sink.split ]
  %indvars.iv.next = add nuw nsw i64 %indvars.iv, 1
  %exitcond.not = icmp eq i64 %indvars.iv.next, %wide.trip.count
  br i1 %exitcond.not, label %.loopexit, label %23, !llvm.loop !15

.loopexit:                                        ; preds = %.lr.ph, %28, %1
  ret void
}